#include <math.h>
#include <stdio.h>
#include <stdlib.h>
#include <string.h>

int main(){
    int m,n,i,j,a[100][100];
    scanf("%d%d",&m,&n);
    for(i=0;i<m;i++){
            for(j=0;j<n;j++){
                    scanf("%d",&a[i][j]);
            }
    }
    for(i=0;i<m+n-1;i++){
            for(j=0;j<m;j++){         
                    if(i-j>=0 && i-j<n) printf("%d\n",a[j][i-j]);
            }
    }  
    scanf("%d%d",&m,&n);
    return 0;
}    
